; Function Attrs: mustprogress uwtable
define internal void @_ZNK12_GLOBAL__N_114AwsStorageTool4statEN5vcpkg10StringViewE(ptr dead_on_unwind noalias writable sret(%"struct.vcpkg::ExpectedT.154") align 8 %0, ptr noundef nonnull align 8 dereferenceable(41) %1, ptr %2, i64 %3) unnamed_addr #0 align 2 personality ptr @__gxx_personality_v0 {
  %5 = alloca %"struct.vcpkg::Command", align 8
  %6 = alloca %"struct.vcpkg::Command", align 8
  %7 = alloca %"struct.vcpkg::ExpectedT.450", align 8
  %8 = getelementptr inbounds i8, ptr %1, i64 8
  %9 = tail call { ptr, i64 } @_ZNK5vcpkg4PathcvNS_10StringViewEEv(ptr noundef nonnull align 8 dereferenceable(32) %8) #24
  %10 = extractvalue { ptr, i64 } %9, 0
  %11 = extractvalue { ptr, i64 } %9, 1
  call void @_ZNSt7__cxx1112basic_stringIcSt11char_traitsIcESaIcEEC1Ev(ptr noundef nonnull align 8 dereferenceable(32) %6) #24
  %12 = invoke noundef nonnull align 8 dereferenceable(32) ptr @_ZNR5vcpkg7Command10string_argENS_10StringViewE(ptr noundef nonnull align 8 dereferenceable(32) %6, ptr %10, i64 %11)
          to label %_ZN5vcpkg7CommandC2ENS_10StringViewE.exit unwind label %13

common.resume:                                    ; preds = %25, %35, %23, %13
  %.sink = phi ptr [ %6, %23 ], [ %6, %13 ], [ %5, %35 ], [ %5, %25 ]
  %common.resume.op = phi { ptr, i32 } [ %24, %23 ], [ %14, %13 ], [ %36, %35 ], [ %26, %25 ]
  call void @_ZNSt7__cxx1112basic_stringIcSt11char_traitsIcESaIcEED1Ev(ptr noundef nonnull align 8 dereferenceable(32) %.sink) #24
  resume { ptr, i32 } %common.resume.op

13:                                               ; preds = %4
  %14 = landingpad { ptr, i32 }
          cleanup
  br label %common.resume

_ZN5vcpkg7CommandC2ENS_10StringViewE.exit:        ; preds = %4
  %15 = invoke noundef nonnull align 8 dereferenceable(32) ptr @_ZNR5vcpkg7Command10string_argENS_10StringViewE(ptr noundef nonnull align 8 dereferenceable(32) %6, ptr nonnull @.str.107, i64 2)
          to label %_ZNO5vcpkg7Command10string_argENS_10StringViewE.exit unwind label %23

_ZNO5vcpkg7Command10string_argENS_10StringViewE.exit: ; preds = %_ZN5vcpkg7CommandC2ENS_10StringViewE.exit
  %16 = invoke noundef nonnull align 8 dereferenceable(32) ptr @_ZNR5vcpkg7Command10string_argENS_10StringViewE(ptr noundef nonnull align 8 dereferenceable(32) %15, ptr nonnull @.str.108, i64 2)
          to label %_ZNO5vcpkg7Command10string_argENS_10StringViewE.exit12 unwind label %23

_ZNO5vcpkg7Command10string_argENS_10StringViewE.exit12: ; preds = %_ZNO5vcpkg7Command10string_argENS_10StringViewE.exit
  %17 = invoke noundef nonnull align 8 dereferenceable(32) ptr @_ZNR5vcpkg7Command10string_argENS_10StringViewE(ptr noundef nonnull align 8 dereferenceable(32) %16, ptr %2, i64 %3)
          to label %_ZNO5vcpkg7Command10string_argENS_10StringViewE.exit13 unwind label %23

_ZNO5vcpkg7Command10string_argENS_10StringViewE.exit13: ; preds = %_ZNO5vcpkg7Command10string_argENS_10StringViewE.exit12
  call void @_ZNSt7__cxx1112basic_stringIcSt11char_traitsIcESaIcEEC1EOS4_(ptr noundef nonnull align 8 dereferenceable(32) %5, ptr noundef nonnull align 8 dereferenceable(32) %17) #24
  call void @_ZNSt7__cxx1112basic_stringIcSt11char_traitsIcESaIcEED1Ev(ptr noundef nonnull align 8 dereferenceable(32) %6) #24
  %18 = getelementptr inbounds i8, ptr %1, i64 40
  %19 = load i8, ptr %18, align 8
  %20 = and i8 %19, 1
  %.not = icmp eq i8 %20, 0
  br i1 %.not, label %27, label %21

21:                                               ; preds = %_ZNO5vcpkg7Command10string_argENS_10StringViewE.exit13
  %22 = invoke noundef nonnull align 8 dereferenceable(32) ptr @_ZNR5vcpkg7Command10string_argENS_10StringViewE(ptr noundef nonnull align 8 dereferenceable(32) %5, ptr nonnull @.str.109, i64 17)
          to label %27 unwind label %25

23:                                               ; preds = %_ZNO5vcpkg7Command10string_argENS_10StringViewE.exit12, %_ZNO5vcpkg7Command10string_argENS_10StringViewE.exit, %_ZN5vcpkg7CommandC2ENS_10StringViewE.exit
  %24 = landingpad { ptr, i32 }
          cleanup
  br label %common.resume

25:                                               ; preds = %27, %21
  %26 = landingpad { ptr, i32 }
          cleanup
  br label %common.resume

27:                                               ; preds = %21, %_ZNO5vcpkg7Command10string_argENS_10StringViewE.exit13
  invoke void @_ZN5vcpkg30cmd_execute_and_capture_outputERKNS_7CommandE(ptr dead_on_unwind nonnull writable sret(%"struct.vcpkg::ExpectedT.450") align 8 %7, ptr noundef nonnull align 8 dereferenceable(32) %5)
          to label %28 unwind label %25

28:                                               ; preds = %27
  invoke void @_ZN5vcpkg7flattenERKNS_9ExpectedTINS_17ExitCodeAndOutputENS_15LocalizedStringEEENS_10StringViewE(ptr dead_on_unwind writable sret(%"struct.vcpkg::ExpectedT.154") align 8 %0, ptr noundef nonnull align 8 dereferenceable(41) %7, ptr nonnull @.str.65, i64 3)
          to label %29 unwind label %35

29:                                               ; preds = %28
  %30 = getelementptr inbounds i8, ptr %7, i64 40
  %31 = load i8, ptr %30, align 8
  %32 = shl i8 %31, 3
  %33 = and i8 %32, 8
  %34 = xor i8 %33, 8
  %.sink.idx.i = zext nneg i8 %34 to i64
  %.sink.i = getelementptr inbounds i8, ptr %7, i64 %.sink.idx.i
  call void @_ZNSt7__cxx1112basic_stringIcSt11char_traitsIcESaIcEED1Ev(ptr noundef nonnull align 8 dereferenceable(32) %.sink.i) #24
  call void @_ZNSt7__cxx1112basic_stringIcSt11char_traitsIcESaIcEED1Ev(ptr noundef nonnull align 8 dereferenceable(32) %5) #24
  ret void

35:                                               ; preds = %28
  %36 = landingpad { ptr, i32 }
          cleanup
  %37 = getelementptr inbounds i8, ptr %7, i64 40
  %38 = load i8, ptr %37, align 8
  %39 = shl i8 %38, 3
  %40 = and i8 %39, 8
  %41 = xor i8 %40, 8
  %.sink.idx.i14 = zext nneg i8 %41 to i64
  %.sink.i15 = getelementptr inbounds i8, ptr %7, i64 %.sink.idx.i14
  call void @_ZNSt7__cxx1112basic_stringIcSt11char_traitsIcESaIcEED1Ev(ptr noundef nonnull align 8 dereferenceable(32) %.sink.i15) #24
  br label %common.resume
}